; Function Attrs: mustprogress nofree norecurse nosync nounwind willreturn memory(argmem: readwrite) uwtable
define dso_local void @_ZN34btDeformableRigidContactConstraintC2ERKN10btSoftBody22DeformableRigidContactERK19btContactSolverInfo(ptr noundef nonnull writeonly align 8 captures(none) dereferenceable(96) initializes((0, 9), (16, 81), (88, 96)) %0, ptr noundef nonnull align 8 dereferenceable(848) %1, ptr noundef nonnull align 4 dereferenceable(128) %2) unnamed_addr #0 align 2 personality ptr @__gxx_personality_v0 {
  %4 = getelementptr inbounds nuw i8, ptr %1, i64 8
  store ptr getelementptr inbounds nuw inrange(-16, 64) (i8, ptr @_ZTV29btDeformableContactConstraint, i64 16), ptr %0, align 8, !tbaa !4
  %5 = getelementptr inbounds nuw i8, ptr %0, i64 8
  store i8 0, ptr %5, align 8, !tbaa !7
  %6 = getelementptr inbounds nuw i8, ptr %0, i64 16
  store ptr %2, ptr %6, align 8, !tbaa !14
  %7 = getelementptr inbounds nuw i8, ptr %0, i64 24
  tail call void @llvm.memcpy.p0.p0.i64(ptr noundef nonnull align 8 dereferenceable(16) %7, ptr noundef nonnull align 8 dereferenceable(16) %4, i64 16, i1 false), !tbaa.struct !15
  store ptr getelementptr inbounds nuw inrange(-16, 88) (i8, ptr @_ZTV34btDeformableRigidContactConstraint, i64 16), ptr %0, align 8, !tbaa !4
  %8 = getelementptr inbounds nuw i8, ptr %0, i64 40
  %9 = getelementptr inbounds nuw i8, ptr %0, i64 88
  store ptr %1, ptr %9, align 8, !tbaa !77
  %10 = getelementptr inbounds nuw i8, ptr %1, i64 40
  tail call void @llvm.memset.p0.i64(ptr noundef nonnull align 8 dereferenceable(32) %8, i8 0, i64 32, i1 false)
  %11 = load float, ptr %10, align 8, !tbaa !80
  %12 = getelementptr inbounds nuw i8, ptr %0, i64 72
  store float %11, ptr %12, align 8, !tbaa !81
  %13 = getelementptr inbounds nuw i8, ptr %0, i64 76
  store float 0.000000e+00, ptr %13, align 4, !tbaa !82
  %14 = getelementptr inbounds nuw i8, ptr %0, i64 80
  store i8 0, ptr %14, align 8, !tbaa !83
  ret void
}